target datalayout = "e-m:e-p270:32:32-p271:32:32-p272:64:64-i64:64-i128:128-f80:128-n8:16:32:64-S128"
target triple = "x86_64-pc-linux-gnu"

@.str = private unnamed_addr constant [106 x i8] c"generated/home/dtcxzyw/WorkSpace/Projects/compilers/llvm-opt-benchmark/bench/hdf5/hdf5/src/H5Oattribute.c\00", align 1
@H5E_ATTR_g = external global i64, align 8
@H5E_CANTCOPY_g = external global i64, align 8
@__func__.H5O__attr_open_by_idx_cb = private unnamed_addr constant [25 x i8] c"H5O__attr_open_by_idx_cb\00", align 1
@.str.55 = private unnamed_addr constant [21 x i8] c"can't copy attribute\00", align 1

; Function Attrs: nounwind uwtable
define internal i32 @H5O__attr_open_by_idx_cb(ptr noundef %0, ptr noundef %1) #0 {
  %3 = alloca ptr, align 8
  %4 = alloca ptr, align 8
  %5 = alloca ptr, align 8
  %6 = alloca i32, align 4
  %7 = alloca i8, align 1
  store ptr %0, ptr %3, align 8
  store ptr %1, ptr %4, align 8
  %8 = load ptr, ptr %4, align 8
  store ptr %8, ptr %5, align 8
  store i32 1, ptr %6, align 4
  store i8 0, ptr %7, align 1
  %9 = load ptr, ptr %3, align 8
  %10 = call ptr @H5A__copy(ptr noundef null, ptr noundef %9)
  %11 = load ptr, ptr %5, align 8
  store ptr %10, ptr %11, align 8
  %12 = icmp eq ptr null, %10
  br i1 %12, label %13, label %28

13:                                               ; preds = %2
  br label %14

14:                                               ; preds = %13
  br label %15

15:                                               ; preds = %14
  br label %16

16:                                               ; preds = %15
  %17 = load i64, ptr @H5E_ATTR_g, align 8
  %18 = load i64, ptr @H5E_CANTCOPY_g, align 8
  %19 = call i32 (ptr, ptr, i32, i64, i64, ptr, ...) @H5E_printf_stack(ptr noundef @.str, ptr noundef @__func__.H5O__attr_open_by_idx_cb, i32 noundef 548, i64 noundef %17, i64 noundef %18, ptr noundef @.str.55)
  br label %20

20:                                               ; preds = %16
  store i8 1, ptr %7, align 1
  %21 = load i8, ptr %7, align 1
  %22 = trunc i8 %21 to i1
  %23 = zext i1 %22 to i8
  store i8 %23, ptr %7, align 1
  br label %24

24:                                               ; preds = %20
  br label %25

25:                                               ; preds = %24
  store i32 -1, ptr %6, align 4
  br label %29

26:                                               ; No predecessors!
  br label %27

27:                                               ; preds = %26
  br label %28

28:                                               ; preds = %27, %2
  br label %29

29:                                               ; preds = %28, %25
  %30 = load i32, ptr %6, align 4
  ret i32 %30
}